	.file	"smodule_TTU.c"
	.text
.Ltext0:
	.comm	__VERS,2,2
	.comm	FRAMECHARS,44,32
	.comm	FRAMECHARSD,44,32
	.section	.rodata
	.type	CTFB_ESC, @object
	.size	CTFB_ESC, 1
CTFB_ESC:
	.byte	27
	.type	CTFB_RET, @object
	.size	CTFB_RET, 1
CTFB_RET:
	.byte	10
	.type	CTFB_ASCII4_CTRL_D, @object
	.size	CTFB_ASCII4_CTRL_D, 1
CTFB_ASCII4_CTRL_D:
	.byte	4
	.type	CTFB_ASCII8_DEL, @object
	.size	CTFB_ASCII8_DEL, 1
CTFB_ASCII8_DEL:
	.byte	8
	.type	CTFB_ASCII21_CTRL_U, @object
	.size	CTFB_ASCII21_CTRL_U, 1
CTFB_ASCII21_CTRL_U:
	.byte	21
	.type	CTFB_BACKSPACE, @object
	.size	CTFB_BACKSPACE, 1
CTFB_BACKSPACE:
	.byte	127
	.type	CTFB_UP, @object
	.size	CTFB_UP, 1
CTFB_UP:
	.byte	-128
	.type	CTFB_LEFT, @object
	.size	CTFB_LEFT, 1
CTFB_LEFT:
	.byte	-127
	.type	CTFB_RIGHT, @object
	.size	CTFB_RIGHT, 1
CTFB_RIGHT:
	.byte	-126
	.type	CTFB_DOWN, @object
	.size	CTFB_DOWN, 1
CTFB_DOWN:
	.byte	-125
	.type	CTFB_UP_SHIFT, @object
	.size	CTFB_UP_SHIFT, 1
CTFB_UP_SHIFT:
	.byte	-124
	.type	CTFB_LEFT_SHIFT, @object
	.size	CTFB_LEFT_SHIFT, 1
CTFB_LEFT_SHIFT:
	.byte	-123
	.type	CTFB_RIGHT_SHIFT, @object
	.size	CTFB_RIGHT_SHIFT, 1
CTFB_RIGHT_SHIFT:
	.byte	-122
	.type	CTFB_DOWN_SHIFT, @object
	.size	CTFB_DOWN_SHIFT, 1
CTFB_DOWN_SHIFT:
	.byte	-121
	.type	CTFB_NE, @object
	.size	CTFB_NE, 1
CTFB_NE:
	.byte	-120
	.type	CTFB_SE, @object
	.size	CTFB_SE, 1
CTFB_SE:
	.byte	-119
	.type	CTFB_NW, @object
	.size	CTFB_NW, 1
CTFB_NW:
	.byte	-118
	.type	CTFB_SW, @object
	.size	CTFB_SW, 1
CTFB_SW:
	.byte	-117
	.type	CTFB_NE_SHIFT, @object
	.size	CTFB_NE_SHIFT, 1
CTFB_NE_SHIFT:
	.byte	-116
	.type	CTFB_SE_SHIFT, @object
	.size	CTFB_SE_SHIFT, 1
CTFB_SE_SHIFT:
	.byte	-115
	.type	CTFB_NW_SHIFT, @object
	.size	CTFB_NW_SHIFT, 1
CTFB_NW_SHIFT:
	.byte	-114
	.type	CTFB_SW_SHIFT, @object
	.size	CTFB_SW_SHIFT, 1
CTFB_SW_SHIFT:
	.byte	-113
	.type	CTFB_F1, @object
	.size	CTFB_F1, 1
CTFB_F1:
	.byte	-112
	.type	CTFB_F2, @object
	.size	CTFB_F2, 1
CTFB_F2:
	.byte	-111
	.type	CTFB_F3, @object
	.size	CTFB_F3, 1
CTFB_F3:
	.byte	-110
	.type	CTFB_F4, @object
	.size	CTFB_F4, 1
CTFB_F4:
	.byte	-109
	.comm	json_typename,192,32
.LC0:
	.string	"nullpointer error at %s %p"
.LC1:
	.string	"!!DEBUG arrStrctT size %ld\n"
.LC2:
	.string	"!!DEBUG _typeSize %ld\n"
.LC3:
	.string	"!!DEBUG allocationSize %d\n"
	.text
	.globl	arr_Finalize_obj_smodule
	.type	arr_Finalize_obj_smodule, @function
arr_Finalize_obj_smodule:
.LFB0:
	.file 1 "submod/cstl/tmpl/arr.c"
	.loc 1 5 57
	.cfi_startproc
	pushq	%rbp
	.cfi_def_cfa_offset 16
	.cfi_offset 6, -16
	movq	%rsp, %rbp
	.cfi_def_cfa_register 6
	subq	$32, %rsp
	movq	%rdi, -24(%rbp)
	.loc 1 6 5
	movq	-24(%rbp), %rax
	.loc 1 6 4
	testq	%rax, %rax
	jne	.L2
	.loc 1 6 13 discriminator 1
	movq	stderr(%rip), %rax
	leaq	-24(%rbp), %rdx
	movq	%rdx, %rcx
	leaq	__func__.4505(%rip), %rdx
	leaq	.LC0(%rip), %rsi
	movq	%rax, %rdi
	movl	$0, %eax
	call	fprintf@PLT
	.loc 1 6 56 discriminator 1
	movl	$1, %edi
	call	exit@PLT
.L2:
	.loc 1 7 28
	movq	-24(%rbp), %rax
	movq	%rax, -8(%rbp)
	.loc 1 8 16
	movq	-8(%rbp), %rax
	movq	$88, 40(%rax)
	.loc 1 9 13
	movq	-8(%rbp), %rax
	leaq	arr_Init_obj_smodule(%rip), %rdx
	movq	%rdx, (%rax)
	.loc 1 10 17
	movq	-8(%rbp), %rax
	leaq	arr_Finalize_obj_smodule(%rip), %rdx
	movq	%rdx, 8(%rax)
	.loc 1 11 13
	movq	-8(%rbp), %rax
	leaq	arr_Free_obj_smodule(%rip), %rdx
	movq	%rdx, 16(%rax)
	.loc 1 12 13
	movq	-8(%rbp), %rax
	leaq	arr_Copy_obj_smodule(%rip), %rdx
	movq	%rdx, 24(%rax)
	.loc 1 16 18
	movq	-8(%rbp), %rax
	movq	$96, 56(%rax)
	.loc 1 17 23
	movq	-8(%rbp), %rax
	movw	$10, 64(%rax)
	.loc 1 18 18
	movq	-8(%rbp), %rax
	movw	$0, 66(%rax)
	.loc 1 19 22
	movq	-8(%rbp), %rax
	movw	$0, 68(%rax)
	.loc 1 20 17
	movq	-8(%rbp), %rax
	movw	$0, 70(%rax)
	.loc 1 21 21
	movq	-8(%rbp), %rax
	movw	$0, 72(%rax)
	.loc 1 24 23
	movq	-8(%rbp), %rax
	movw	$0, 74(%rax)
	.loc 1 28 2
	movq	stderr(%rip), %rax
	movl	$88, %edx
	leaq	.LC1(%rip), %rsi
	movq	%rax, %rdi
	movl	$0, %eax
	call	fprintf@PLT
	.loc 1 29 2
	movq	-8(%rbp), %rax
	movq	56(%rax), %rdx
	movq	stderr(%rip), %rax
	leaq	.LC2(%rip), %rsi
	movq	%rax, %rdi
	movl	$0, %eax
	call	fprintf@PLT
	.loc 1 30 51
	movq	-8(%rbp), %rax
	movzwl	64(%rax), %eax
	.loc 1 30 2
	movzwl	%ax, %edx
	movq	stderr(%rip), %rax
	leaq	.LC3(%rip), %rsi
	movq	%rax, %rdi
	movl	$0, %eax
	call	fprintf@PLT
	.loc 1 33 17
	movl	$96, %esi
	movl	$10, %edi
	call	calloc@PLT
	movq	%rax, %rdx
	.loc 1 33 16
	movq	-8(%rbp), %rax
	movq	%rdx, 80(%rax)
	.loc 1 34 8
	movq	-8(%rbp), %rax
	.loc 1 34 2
	leave
	.cfi_def_cfa 7, 8
	ret
	.cfi_endproc
.LFE0:
	.size	arr_Finalize_obj_smodule, .-arr_Finalize_obj_smodule
	.globl	arr_Init_obj_smodule
	.type	arr_Init_obj_smodule, @function
arr_Init_obj_smodule:
.LFB1:
	.loc 1 37 23
	.cfi_startproc
	pushq	%rbp
	.cfi_def_cfa_offset 16
	.cfi_offset 6, -16
	movq	%rsp, %rbp
	.cfi_def_cfa_register 6
	subq	$16, %rsp
	.loc 1 38 43
	movl	$88, %esi
	movl	$1, %edi
	call	calloc@PLT
	movq	%rax, -8(%rbp)
	.loc 1 39 4
	cmpq	$0, -8(%rbp)
	jne	.L5
	.loc 1 39 27 discriminator 1
	movl	$0, %eax
	jmp	.L6
.L5:
	.loc 1 41 9
	movq	-8(%rbp), %rax
	movq	%rax, %rdi
	call	arr_Finalize_obj_smodule
.L6:
	.loc 1 41 2
	leave
	.cfi_def_cfa 7, 8
	ret
	.cfi_endproc
.LFE1:
	.size	arr_Init_obj_smodule, .-arr_Init_obj_smodule
	.globl	arr_Copy_obj_smodule
	.type	arr_Copy_obj_smodule, @function
arr_Copy_obj_smodule:
.LFB2:
	.loc 1 44 53
	.cfi_startproc
	pushq	%rbp
	.cfi_def_cfa_offset 16
	.cfi_offset 6, -16
	movq	%rsp, %rbp
	.cfi_def_cfa_register 6
	subq	$48, %rsp
	movq	%rdi, -40(%rbp)
	.loc 1 44 53
	movq	%fs:40, %rax
	movq	%rax, -8(%rbp)
	xorl	%eax, %eax
	.loc 1 45 5
	movq	-40(%rbp), %rax
	.loc 1 45 4
	testq	%rax, %rax
	jne	.L8
	.loc 1 45 13 discriminator 1
	movq	stderr(%rip), %rax
	leaq	-40(%rbp), %rdx
	movq	%rdx, %rcx
	leaq	__func__.4513(%rip), %rdx
	leaq	.LC0(%rip), %rsi
	movq	%rax, %rdi
	movl	$0, %eax
	call	fprintf@PLT
	.loc 1 45 56 discriminator 1
	movl	$1, %edi
	call	exit@PLT
.L8:
	.loc 1 46 38
	movq	-40(%rbp), %rax
	movq	(%rax), %rdx
	.loc 1 46 34
	movl	$0, %eax
	call	*%rdx
.LVL0:
	.loc 1 46 28
	movq	%rax, -24(%rbp)
	.loc 1 47 5
	movq	-24(%rbp), %rax
	.loc 1 47 4
	testq	%rax, %rax
	jne	.L9
	.loc 1 47 14 discriminator 1
	movq	stderr(%rip), %rax
	leaq	-24(%rbp), %rdx
	movq	%rdx, %rcx
	leaq	__func__.4513(%rip), %rdx
	leaq	.LC0(%rip), %rsi
	movq	%rax, %rdi
	movl	$0, %eax
	call	fprintf@PLT
	.loc 1 47 57 discriminator 1
	movl	$1, %edi
	call	exit@PLT
.L9:
	.loc 1 48 35
	movq	-24(%rbp), %rax
	.loc 1 48 15
	movq	80(%rax), %rax
	movq	%rax, -16(%rbp)
	.loc 1 49 2
	movq	-40(%rbp), %rcx
	movq	-24(%rbp), %rax
	movl	$88, %edx
	movq	%rcx, %rsi
	movq	%rax, %rdi
	call	memcpy@PLT
	.loc 1 50 7
	movq	-24(%rbp), %rax
	.loc 1 50 16
	movq	-16(%rbp), %rdx
	movq	%rdx, 80(%rax)
	.loc 1 51 42
	movq	-40(%rbp), %rax
	movzwl	70(%rax), %eax
	movzwl	%ax, %edx
	.loc 1 51 2
	movq	%rdx, %rax
	addq	%rax, %rax
	addq	%rdx, %rax
	salq	$5, %rax
	movq	%rax, %rdx
	.loc 1 51 28
	movq	-40(%rbp), %rax
	movq	80(%rax), %rcx
	.loc 1 51 14
	movq	-24(%rbp), %rax
	movq	80(%rax), %rax
	.loc 1 51 2
	movq	%rcx, %rsi
	movq	%rax, %rdi
	call	memcpy@PLT
	.loc 1 52 8
	movq	-24(%rbp), %rax
	.loc 1 52 2
	movq	-8(%rbp), %rsi
	xorq	%fs:40, %rsi
	je	.L11
	call	__stack_chk_fail@PLT
.L11:
	leave
	.cfi_def_cfa 7, 8
	ret
	.cfi_endproc
.LFE2:
	.size	arr_Copy_obj_smodule, .-arr_Copy_obj_smodule
	.globl	arr_Copyto_obj_smodule
	.type	arr_Copyto_obj_smodule, @function
arr_Copyto_obj_smodule:
.LFB3:
	.loc 1 55 87
	.cfi_startproc
	pushq	%rbp
	.cfi_def_cfa_offset 16
	.cfi_offset 6, -16
	movq	%rsp, %rbp
	.cfi_def_cfa_register 6
	subq	$32, %rsp
	movq	%rdi, -24(%rbp)
	movq	%rsi, -32(%rbp)
	.loc 1 56 5
	movq	-24(%rbp), %rax
	.loc 1 56 4
	testq	%rax, %rax
	jne	.L13
	.loc 1 56 13 discriminator 1
	movq	stderr(%rip), %rax
	leaq	-24(%rbp), %rdx
	movq	%rdx, %rcx
	leaq	__func__.4520(%rip), %rdx
	leaq	.LC0(%rip), %rsi
	movq	%rax, %rdi
	movl	$0, %eax
	call	fprintf@PLT
	.loc 1 56 56 discriminator 1
	movl	$1, %edi
	call	exit@PLT
.L13:
	.loc 1 57 5
	movq	-32(%rbp), %rax
	.loc 1 57 4
	testq	%rax, %rax
	jne	.L14
	.loc 1 57 13 discriminator 1
	movq	stderr(%rip), %rax
	leaq	-32(%rbp), %rdx
	movq	%rdx, %rcx
	leaq	__func__.4520(%rip), %rdx
	leaq	.LC0(%rip), %rsi
	movq	%rax, %rdi
	movl	$0, %eax
	call	fprintf@PLT
	.loc 1 57 56 discriminator 1
	movl	$1, %edi
	call	exit@PLT
.L14:
	.loc 1 58 2
	movq	-32(%rbp), %rax
	movq	%rax, %rdi
	call	arr_Finalize_obj_smodule
	.loc 1 59 34
	movq	-32(%rbp), %rax
	.loc 1 59 15
	movq	80(%rax), %rax
	movq	%rax, -8(%rbp)
	.loc 1 60 2
	movq	-24(%rbp), %rcx
	movq	-32(%rbp), %rax
	movl	$88, %edx
	movq	%rcx, %rsi
	movq	%rax, %rdi
	call	memcpy@PLT
	.loc 1 61 6
	movq	-32(%rbp), %rax
	.loc 1 61 15
	movq	-8(%rbp), %rdx
	movq	%rdx, 80(%rax)
	.loc 1 62 41
	movq	-24(%rbp), %rax
	movzwl	70(%rax), %eax
	movzwl	%ax, %edx
	.loc 1 62 2
	movq	%rdx, %rax
	addq	%rax, %rax
	addq	%rdx, %rax
	salq	$5, %rax
	movq	%rax, %rdx
	.loc 1 62 27
	movq	-24(%rbp), %rax
	movq	80(%rax), %rcx
	.loc 1 62 13
	movq	-32(%rbp), %rax
	movq	80(%rax), %rax
	.loc 1 62 2
	movq	%rcx, %rsi
	movq	%rax, %rdi
	call	memcpy@PLT
	.loc 1 63 8
	movl	$0, %eax
	.loc 1 63 12
	leave
	.cfi_def_cfa 7, 8
	ret
	.cfi_endproc
.LFE3:
	.size	arr_Copyto_obj_smodule, .-arr_Copyto_obj_smodule
	.globl	arr_Free_obj_smodule
	.type	arr_Free_obj_smodule, @function
arr_Free_obj_smodule:
.LFB4:
	.loc 1 66 53
	.cfi_startproc
	pushq	%rbp
	.cfi_def_cfa_offset 16
	.cfi_offset 6, -16
	movq	%rsp, %rbp
	.cfi_def_cfa_register 6
	subq	$16, %rsp
	movq	%rdi, -8(%rbp)
	.loc 1 67 5
	movq	-8(%rbp), %rax
	.loc 1 67 4
	testq	%rax, %rax
	jne	.L17
	.loc 1 67 13 discriminator 1
	movq	stderr(%rip), %rax
	leaq	-8(%rbp), %rdx
	movq	%rdx, %rcx
	leaq	__func__.4525(%rip), %rdx
	leaq	.LC0(%rip), %rsi
	movq	%rax, %rdi
	movl	$0, %eax
	call	fprintf@PLT
	.loc 1 67 56 discriminator 1
	movl	$1, %edi
	call	exit@PLT
.L17:
	.loc 1 68 2
	movq	-8(%rbp), %rax
	movq	%rax, %rdi
	call	arr_Clean_obj_smodule
	.loc 1 69 2
	movq	-8(%rbp), %rax
	movq	%rax, %rdi
	call	free@PLT
	.loc 1 70 2
	nop
	leave
	.cfi_def_cfa 7, 8
	ret
	.cfi_endproc
.LFE4:
	.size	arr_Free_obj_smodule, .-arr_Free_obj_smodule
	.section	.rodata
.LC4:
	.string	"cleaning obj at %p\n"
	.text
	.globl	arr_Clean_obj_smodule
	.type	arr_Clean_obj_smodule, @function
arr_Clean_obj_smodule:
.LFB5:
	.loc 1 73 54
	.cfi_startproc
	pushq	%rbp
	.cfi_def_cfa_offset 16
	.cfi_offset 6, -16
	movq	%rsp, %rbp
	.cfi_def_cfa_register 6
	subq	$32, %rsp
	movq	%rdi, -24(%rbp)
	.loc 1 74 5
	movq	-24(%rbp), %rax
	.loc 1 74 4
	testq	%rax, %rax
	jne	.L20
	.loc 1 74 13 discriminator 1
	movq	stderr(%rip), %rax
	leaq	-24(%rbp), %rdx
	movq	%rdx, %rcx
	leaq	__func__.4529(%rip), %rdx
	leaq	.LC0(%rip), %rsi
	movq	%rax, %rdi
	movl	$0, %eax
	call	fprintf@PLT
	.loc 1 74 56 discriminator 1
	movl	$1, %edi
	call	exit@PLT
.L20:
	.loc 1 76 15
	movq	$0, -8(%rbp)
	.loc 1 77 2
	movq	-24(%rbp), %rax
	movq	%rax, %rdi
	call	arr_iterResetStart_obj_smodule
	.loc 1 78 7
	jmp	.L21
.L22:
	.loc 1 79 3
	movq	-8(%rbp), %rax
	movq	%rax, %rdi
	call	obj_smodule_clean@PLT
	.loc 1 81 3
	movq	-8(%rbp), %rax
	movq	%rax, %rsi
	leaq	.LC4(%rip), %rdi
	movl	$0, %eax
	call	printf@PLT
.L21:
	.loc 1 78 15
	movq	-24(%rbp), %rax
	movq	%rax, %rdi
	call	arr_iterNext_obj_smodule
	movq	%rax, -8(%rbp)
	.loc 1 78 7
	cmpq	$0, -8(%rbp)
	jne	.L22
	.loc 1 84 11
	movq	-24(%rbp), %rax
	movq	80(%rax), %rax
	.loc 1 84 2
	movq	%rax, %rdi
	call	free@PLT
	.loc 1 86 6
	movq	-24(%rbp), %rax
	.loc 1 86 17
	movq	$0, 56(%rax)
	.loc 1 87 6
	movq	-24(%rbp), %rax
	.loc 1 87 22
	movw	$0, 64(%rax)
	.loc 1 88 6
	movq	-24(%rbp), %rax
	.loc 1 88 17
	movw	$0, 66(%rax)
	.loc 1 89 6
	movq	-24(%rbp), %rax
	.loc 1 89 21
	movw	$0, 68(%rax)
	.loc 1 90 6
	movq	-24(%rbp), %rax
	.loc 1 90 20
	movw	$0, 72(%rax)
	.loc 1 92 8
	movl	$0, %eax
	.loc 1 92 12
	leave
	.cfi_def_cfa 7, 8
	ret
	.cfi_endproc
.LFE5:
	.size	arr_Clean_obj_smodule, .-arr_Clean_obj_smodule
	.section	.rodata
.LC5:
	.string	"%s _resize relloc\n"
.LC6:
	.string	"p=%p size=%ld\n"
	.text
	.globl	arr__resize_obj_smodule
	.type	arr__resize_obj_smodule, @function
arr__resize_obj_smodule:
.LFB6:
	.loc 1 95 77
	.cfi_startproc
	pushq	%rbp
	.cfi_def_cfa_offset 16
	.cfi_offset 6, -16
	movq	%rsp, %rbp
	.cfi_def_cfa_register 6
	subq	$32, %rsp
	movq	%rdi, -24(%rbp)
	movl	%esi, %eax
	movw	%ax, -28(%rbp)
	.loc 1 96 28
	movq	$0, -8(%rbp)
	.loc 1 97 11
	movq	-24(%rbp), %rax
	movzwl	70(%rax), %eax
	movw	%ax, -12(%rbp)
	.loc 1 98 42
	movq	-24(%rbp), %rax
	movzwl	70(%rax), %eax
	.loc 1 98 11
	movzwl	-28(%rbp), %edx
	subl	%eax, %edx
	movl	%edx, %eax
	movw	%ax, -10(%rbp)
	.loc 1 99 16
	movq	-24(%rbp), %rax
	movzwl	-28(%rbp), %edx
	movw	%dx, 70(%rax)
	.loc 1 101 2
	movq	stderr(%rip), %rax
	leaq	__func__.4541(%rip), %rdx
	leaq	.LC5(%rip), %rsi
	movq	%rax, %rdi
	movl	$0, %eax
	call	fprintf@PLT
	.loc 1 102 59
	movq	-24(%rbp), %rax
	movzwl	70(%rax), %eax
	movzwl	%ax, %edx
	.loc 1 102 2
	movq	%rdx, %rax
	addq	%rax, %rax
	addq	%rdx, %rax
	salq	$5, %rax
	movq	%rax, %rcx
	.loc 1 102 45
	movq	-24(%rbp), %rax
	movq	80(%rax), %rdx
	.loc 1 102 2
	movq	stderr(%rip), %rax
	leaq	.LC6(%rip), %rsi
	movq	%rax, %rdi
	movl	$0, %eax
	call	fprintf@PLT
	.loc 1 104 46
	movq	-24(%rbp), %rax
	movzwl	70(%rax), %eax
	movzwl	%ax, %edx
	.loc 1 104 20
	movq	%rdx, %rax
	addq	%rax, %rax
	addq	%rdx, %rax
	salq	$5, %rax
	movq	%rax, %rdx
	.loc 1 104 32
	movq	-24(%rbp), %rax
	movq	80(%rax), %rax
	.loc 1 104 20
	movq	%rdx, %rsi
	movq	%rax, %rdi
	call	realloc@PLT
	movq	%rax, -8(%rbp)
	.loc 1 104 4
	cmpq	$0, -8(%rbp)
	jne	.L25
	.loc 1 106 17
	movq	-24(%rbp), %rax
	movzwl	-12(%rbp), %edx
	movw	%dx, 70(%rax)
	.loc 1 107 9
	movl	$1, %eax
	jmp	.L26
.L25:
	.loc 1 108 2
	movzwl	-10(%rbp), %edx
	movq	%rdx, %rax
	addq	%rax, %rax
	addq	%rdx, %rax
	salq	$5, %rax
	movq	%rax, %rsi
	.loc 1 108 13
	movq	-24(%rbp), %rax
	movq	80(%rax), %rcx
	.loc 1 108 22
	movzwl	-12(%rbp), %edx
	movq	%rdx, %rax
	addq	%rax, %rax
	addq	%rdx, %rax
	salq	$5, %rax
	addq	%rcx, %rax
	.loc 1 108 2
	movq	%rsi, %rdx
	movl	$0, %esi
	movq	%rax, %rdi
	call	memset@PLT
	.loc 1 109 15
	movq	-24(%rbp), %rax
	movq	-8(%rbp), %rdx
	movq	%rdx, 80(%rax)
	.loc 1 111 8
	movl	$0, %eax
.L26:
	.loc 1 111 2
	leave
	.cfi_def_cfa 7, 8
	ret
	.cfi_endproc
.LFE6:
	.size	arr__resize_obj_smodule, .-arr__resize_obj_smodule
	.globl	arr__autoextend_obj_smodule
	.type	arr__autoextend_obj_smodule, @function
arr__autoextend_obj_smodule:
.LFB7:
	.loc 1 114 60
	.cfi_startproc
	pushq	%rbp
	.cfi_def_cfa_offset 16
	.cfi_offset 6, -16
	movq	%rsp, %rbp
	.cfi_def_cfa_register 6
	subq	$16, %rsp
	movq	%rdi, -8(%rbp)
	.loc 1 115 38
	movq	-8(%rbp), %rax
	movzwl	70(%rax), %edx
	.loc 1 115 53
	movq	-8(%rbp), %rax
	movzwl	64(%rax), %eax
	.loc 1 115 48
	addl	%edx, %eax
	.loc 1 115 5
	movzwl	%ax, %edx
	movq	-8(%rbp), %rax
	movl	%edx, %esi
	movq	%rax, %rdi
	call	arr__resize_obj_smodule
	.loc 1 115 4
	testl	%eax, %eax
	je	.L28
	.loc 1 116 9
	movl	$1, %eax
	jmp	.L29
.L28:
	.loc 1 117 6
	movq	-8(%rbp), %rax
	movzwl	74(%rax), %eax
	.loc 1 117 22
	leal	1(%rax), %edx
	movq	-8(%rbp), %rax
	movw	%dx, 74(%rax)
	.loc 1 118 8
	movl	$0, %eax
.L29:
	.loc 1 118 2
	leave
	.cfi_def_cfa 7, 8
	ret
	.cfi_endproc
.LFE7:
	.size	arr__autoextend_obj_smodule, .-arr__autoextend_obj_smodule
	.globl	arr_extendBy_obj_smodule
	.type	arr_extendBy_obj_smodule, @function
arr_extendBy_obj_smodule:
.LFB8:
	.loc 1 121 80
	.cfi_startproc
	pushq	%rbp
	.cfi_def_cfa_offset 16
	.cfi_offset 6, -16
	movq	%rsp, %rbp
	.cfi_def_cfa_register 6
	subq	$16, %rsp
	movq	%rdi, -8(%rbp)
	movl	%esi, %eax
	movw	%ax, -12(%rbp)
	.loc 1 122 5
	movq	-8(%rbp), %rax
	.loc 1 122 4
	testq	%rax, %rax
	jne	.L31
	.loc 1 122 13 discriminator 1
	movq	stderr(%rip), %rax
	leaq	-8(%rbp), %rdx
	movq	%rdx, %rcx
	leaq	__func__.4549(%rip), %rdx
	leaq	.LC0(%rip), %rsi
	movq	%rax, %rdi
	movl	$0, %eax
	call	fprintf@PLT
	.loc 1 122 56 discriminator 1
	movl	$1, %edi
	call	exit@PLT
.L31:
	.loc 1 123 17
	movzwl	-12(%rbp), %edx
	.loc 1 123 32
	movq	-8(%rbp), %rax
	movzwl	70(%rax), %eax
	movzwl	%ax, %eax
	.loc 1 123 27
	movl	$32767, %ecx
	subl	%eax, %ecx
	movl	%ecx, %eax
	.loc 1 123 4
	cmpl	%eax, %edx
	jl	.L32
	.loc 1 123 49 discriminator 1
	movl	$2, %eax
	jmp	.L33
.L32:
	.loc 1 124 38
	movq	-8(%rbp), %rax
	movzwl	70(%rax), %edx
	.loc 1 124 48
	movzwl	-12(%rbp), %eax
	addl	%edx, %eax
	.loc 1 124 5
	movzwl	%ax, %edx
	movq	-8(%rbp), %rax
	movl	%edx, %esi
	movq	%rax, %rdi
	call	arr__resize_obj_smodule
	.loc 1 124 4
	testl	%eax, %eax
	je	.L34
	.loc 1 125 9
	movl	$1, %eax
	jmp	.L33
.L34:
	.loc 1 126 8
	movl	$0, %eax
.L33:
	.loc 1 126 2
	leave
	.cfi_def_cfa 7, 8
	ret
	.cfi_endproc
.LFE8:
	.size	arr_extendBy_obj_smodule, .-arr_extendBy_obj_smodule
	.globl	arr_indexToPtr_obj_smodule
	.type	arr_indexToPtr_obj_smodule, @function
arr_indexToPtr_obj_smodule:
.LFB9:
	.loc 1 129 77
	.cfi_startproc
	pushq	%rbp
	.cfi_def_cfa_offset 16
	.cfi_offset 6, -16
	movq	%rsp, %rbp
	.cfi_def_cfa_register 6
	subq	$16, %rsp
	movq	%rdi, -8(%rbp)
	movl	%esi, %eax
	movw	%ax, -12(%rbp)
	.loc 1 130 5
	movq	-8(%rbp), %rax
	.loc 1 130 4
	testq	%rax, %rax
	jne	.L36
	.loc 1 130 13 discriminator 1
	movq	stderr(%rip), %rax
	leaq	-8(%rbp), %rdx
	movq	%rdx, %rcx
	leaq	__func__.4554(%rip), %rdx
	leaq	.LC0(%rip), %rsi
	movq	%rax, %rdi
	movl	$0, %eax
	call	fprintf@PLT
	.loc 1 130 56 discriminator 1
	movl	$1, %edi
	call	exit@PLT
.L36:
	.loc 1 131 19
	movq	-8(%rbp), %rax
	movzwl	70(%rax), %eax
	.loc 1 131 4
	cmpw	%ax, -12(%rbp)
	jb	.L37
	.loc 1 131 36 discriminator 1
	movl	$0, %eax
	jmp	.L38
.L37:
	.loc 1 132 13
	movq	-8(%rbp), %rax
	movq	80(%rax), %rcx
	.loc 1 132 27
	movq	-8(%rbp), %rax
	movzwl	68(%rax), %eax
	.loc 1 132 42
	movzwl	%ax, %edx
	movzwl	-12(%rbp), %eax
	addq	%rax, %rdx
	movq	%rdx, %rax
	addq	%rax, %rax
	addq	%rdx, %rax
	salq	$5, %rax
	addq	%rcx, %rax
.L38:
	.loc 1 132 2
	leave
	.cfi_def_cfa 7, 8
	ret
	.cfi_endproc
.LFE9:
	.size	arr_indexToPtr_obj_smodule, .-arr_indexToPtr_obj_smodule
	.section	.rodata
.LC7:
	.string	"%s _autoextend failed"
	.align 8
.LC8:
	.string	"%s intedToPtr failed,  probably out of bounds"
	.align 8
.LC9:
	.string	"%s TEMPLATE(T,finalize) failed\n"
	.text
	.globl	arr_append_obj_smodule
	.type	arr_append_obj_smodule, @function
arr_append_obj_smodule:
.LFB10:
	.loc 1 136 55
	.cfi_startproc
	pushq	%rbp
	.cfi_def_cfa_offset 16
	.cfi_offset 6, -16
	movq	%rsp, %rbp
	.cfi_def_cfa_register 6
	subq	$32, %rsp
	movq	%rdi, -24(%rbp)
	.loc 1 137 5
	movq	-24(%rbp), %rax
	.loc 1 137 4
	testq	%rax, %rax
	jne	.L40
	.loc 1 137 13 discriminator 1
	movq	stderr(%rip), %rax
	leaq	-24(%rbp), %rdx
	movq	%rdx, %rcx
	leaq	__func__.4558(%rip), %rdx
	leaq	.LC0(%rip), %rsi
	movq	%rax, %rdi
	movl	$0, %eax
	call	fprintf@PLT
	.loc 1 137 56 discriminator 1
	movl	$1, %edi
	call	exit@PLT
.L40:
	.loc 1 138 15
	movq	$0, -8(%rbp)
	.loc 1 140 9
	movq	-24(%rbp), %rax
	movzwl	72(%rax), %eax
	movswl	%ax, %edx
	.loc 1 140 29
	movq	-24(%rbp), %rax
	movzwl	70(%rax), %eax
	movzwl	%ax, %eax
	.loc 1 140 4
	cmpl	%eax, %edx
	jl	.L41
	.loc 1 141 6
	movq	-24(%rbp), %rax
	movq	%rax, %rdi
	call	arr__autoextend_obj_smodule
	.loc 1 141 5
	testl	%eax, %eax
	je	.L41
	.loc 1 143 4
	movq	stderr(%rip), %rax
	leaq	__func__.4558(%rip), %rdx
	leaq	.LC7(%rip), %rsi
	movq	%rax, %rdi
	movl	$0, %eax
	call	fprintf@PLT
	.loc 1 145 10
	movl	$0, %eax
	jmp	.L42
.L41:
	.loc 1 146 50
	movq	-24(%rbp), %rax
	movzwl	72(%rax), %eax
	.loc 1 146 14
	movzwl	%ax, %edx
	movq	-24(%rbp), %rax
	movl	%edx, %esi
	movq	%rax, %rdi
	call	arr_indexToPtr_obj_smodule
	movq	%rax, -8(%rbp)
	.loc 1 146 4
	cmpq	$0, -8(%rbp)
	jne	.L43
	.loc 1 148 3
	movq	stderr(%rip), %rax
	leaq	__func__.4558(%rip), %rdx
	leaq	.LC8(%rip), %rsi
	movq	%rax, %rdi
	movl	$0, %eax
	call	fprintf@PLT
	.loc 1 151 9
	movl	$0, %eax
	jmp	.L42
.L43:
	.loc 1 152 6
	movq	-24(%rbp), %rax
	movzwl	72(%rax), %edx
	.loc 1 152 20
	addl	$1, %edx
	movw	%dx, 72(%rax)
	.loc 1 153 6
	movq	-8(%rbp), %rax
	movq	%rax, %rdi
	call	obj_smodule_finalize@PLT
	.loc 1 153 4
	testq	%rax, %rax
	jne	.L44
	.loc 1 155 2
	movq	stderr(%rip), %rax
	leaq	__func__.4558(%rip), %rdx
	leaq	.LC9(%rip), %rsi
	movq	%rax, %rdi
	movl	$0, %eax
	call	fprintf@PLT
	.loc 1 157 8
	movl	$0, %eax
	jmp	.L42
.L44:
	.loc 1 158 8
	movq	-8(%rbp), %rax
.L42:
	.loc 1 158 2
	leave
	.cfi_def_cfa 7, 8
	ret
	.cfi_endproc
.LFE10:
	.size	arr_append_obj_smodule, .-arr_append_obj_smodule
	.globl	arr_execOnAll_obj_smodule
	.type	arr_execOnAll_obj_smodule, @function
arr_execOnAll_obj_smodule:
.LFB11:
	.loc 1 161 92
	.cfi_startproc
	pushq	%rbp
	.cfi_def_cfa_offset 16
	.cfi_offset 6, -16
	movq	%rsp, %rbp
	.cfi_def_cfa_register 6
	subq	$32, %rsp
	movq	%rdi, -24(%rbp)
	movq	%rsi, -32(%rbp)
	.loc 1 162 5
	movq	-24(%rbp), %rax
	.loc 1 162 4
	testq	%rax, %rax
	jne	.L46
	.loc 1 162 13 discriminator 1
	movq	stderr(%rip), %rax
	leaq	-24(%rbp), %rdx
	movq	%rdx, %rcx
	leaq	__func__.4565(%rip), %rdx
	leaq	.LC0(%rip), %rsi
	movq	%rax, %rdi
	movl	$0, %eax
	call	fprintf@PLT
	.loc 1 162 56 discriminator 1
	movl	$1, %edi
	call	exit@PLT
.L46:
	.loc 1 163 5
	movq	-32(%rbp), %rax
	.loc 1 163 4
	testq	%rax, %rax
	jne	.L47
	.loc 1 163 19 discriminator 1
	movq	stderr(%rip), %rax
	leaq	-32(%rbp), %rdx
	movq	%rdx, %rcx
	leaq	__func__.4565(%rip), %rdx
	leaq	.LC0(%rip), %rsi
	movq	%rax, %rdi
	movl	$0, %eax
	call	fprintf@PLT
	.loc 1 163 62 discriminator 1
	movl	$1, %edi
	call	exit@PLT
.L47:
	.loc 1 164 27
	movq	-24(%rbp), %rax
	movq	80(%rax), %rcx
	.loc 1 164 41
	movq	-24(%rbp), %rax
	movzwl	68(%rax), %eax
	movzwl	%ax, %edx
	.loc 1 164 36
	movq	%rdx, %rax
	addq	%rax, %rax
	addq	%rdx, %rax
	salq	$5, %rax
	.loc 1 164 15
	addq	%rcx, %rax
	movq	%rax, -8(%rbp)
.LBB2:
	.loc 1 165 10
	movl	$0, -12(%rbp)
	.loc 1 165 2
	jmp	.L48
.L49:
	.loc 1 166 3 discriminator 3
	movq	-32(%rbp), %rcx
	.loc 1 166 21 discriminator 3
	movl	-12(%rbp), %eax
	movslq	%eax, %rdx
	movq	%rdx, %rax
	addq	%rax, %rax
	addq	%rdx, %rax
	salq	$5, %rax
	movq	%rax, %rdx
	movq	-8(%rbp), %rax
	addq	%rdx, %rax
	.loc 1 166 3 discriminator 3
	movq	%rax, %rdi
	call	*%rcx
.LVL1:
	.loc 1 165 36 discriminator 3
	addl	$1, -12(%rbp)
.L48:
	.loc 1 165 20 discriminator 1
	movq	-24(%rbp), %rax
	movzwl	72(%rax), %eax
	cwtl
	.loc 1 165 2 discriminator 1
	cmpl	%eax, -12(%rbp)
	jl	.L49
.LBE2:
	.loc 1 168 8
	movl	$0, %eax
	.loc 1 168 12
	leave
	.cfi_def_cfa 7, 8
	ret
	.cfi_endproc
.LFE11:
	.size	arr_execOnAll_obj_smodule, .-arr_execOnAll_obj_smodule
	.globl	arr_iterResetStart_obj_smodule
	.type	arr_iterResetStart_obj_smodule, @function
arr_iterResetStart_obj_smodule:
.LFB12:
	.loc 1 171 63
	.cfi_startproc
	pushq	%rbp
	.cfi_def_cfa_offset 16
	.cfi_offset 6, -16
	movq	%rsp, %rbp
	.cfi_def_cfa_register 6
	subq	$16, %rsp
	movq	%rdi, -8(%rbp)
	.loc 1 172 5
	movq	-8(%rbp), %rax
	.loc 1 172 4
	testq	%rax, %rax
	jne	.L52
	.loc 1 172 13 discriminator 1
	movq	stderr(%rip), %rax
	leaq	-8(%rbp), %rdx
	movq	%rdx, %rcx
	leaq	__func__.4574(%rip), %rdx
	leaq	.LC0(%rip), %rsi
	movq	%rax, %rdi
	movl	$0, %eax
	call	fprintf@PLT
	.loc 1 172 56 discriminator 1
	movl	$1, %edi
	call	exit@PLT
.L52:
	.loc 1 173 6
	movq	-8(%rbp), %rax
	.loc 1 173 17
	movw	$0, 66(%rax)
	.loc 1 174 2
	nop
	leave
	.cfi_def_cfa 7, 8
	ret
	.cfi_endproc
.LFE12:
	.size	arr_iterResetStart_obj_smodule, .-arr_iterResetStart_obj_smodule
	.globl	arr_iterResetEnd_obj_smodule
	.type	arr_iterResetEnd_obj_smodule, @function
arr_iterResetEnd_obj_smodule:
.LFB13:
	.loc 1 176 61
	.cfi_startproc
	pushq	%rbp
	.cfi_def_cfa_offset 16
	.cfi_offset 6, -16
	movq	%rsp, %rbp
	.cfi_def_cfa_register 6
	subq	$16, %rsp
	movq	%rdi, -8(%rbp)
	.loc 1 177 5
	movq	-8(%rbp), %rax
	.loc 1 177 4
	testq	%rax, %rax
	jne	.L55
	.loc 1 177 13 discriminator 1
	movq	stderr(%rip), %rax
	leaq	-8(%rbp), %rdx
	movq	%rdx, %rcx
	leaq	__func__.4578(%rip), %rdx
	leaq	.LC0(%rip), %rsi
	movq	%rax, %rdi
	movl	$0, %eax
	call	fprintf@PLT
	.loc 1 177 56 discriminator 1
	movl	$1, %edi
	call	exit@PLT
.L55:
	.loc 1 178 22
	movq	-8(%rbp), %rax
	movzwl	72(%rax), %edx
	.loc 1 178 6
	movq	-8(%rbp), %rax
	.loc 1 178 17
	movw	%dx, 66(%rax)
	.loc 1 179 2
	nop
	leave
	.cfi_def_cfa 7, 8
	ret
	.cfi_endproc
.LFE13:
	.size	arr_iterResetEnd_obj_smodule, .-arr_iterResetEnd_obj_smodule
	.globl	arr_iterNext_obj_smodule
	.type	arr_iterNext_obj_smodule, @function
arr_iterNext_obj_smodule:
.LFB14:
	.loc 1 181 57
	.cfi_startproc
	pushq	%rbp
	.cfi_def_cfa_offset 16
	.cfi_offset 6, -16
	movq	%rsp, %rbp
	.cfi_def_cfa_register 6
	subq	$16, %rsp
	movq	%rdi, -8(%rbp)
	.loc 1 182 5
	movq	-8(%rbp), %rax
	.loc 1 182 4
	testq	%rax, %rax
	jne	.L58
	.loc 1 182 13 discriminator 1
	movq	stderr(%rip), %rax
	leaq	-8(%rbp), %rdx
	movq	%rdx, %rcx
	leaq	__func__.4582(%rip), %rdx
	leaq	.LC0(%rip), %rsi
	movq	%rax, %rdi
	movl	$0, %eax
	call	fprintf@PLT
	.loc 1 182 56 discriminator 1
	movl	$1, %edi
	call	exit@PLT
.L58:
	.loc 1 183 9
	movq	-8(%rbp), %rax
	movzwl	66(%rax), %eax
	movzwl	%ax, %edx
	.loc 1 183 26
	movq	-8(%rbp), %rax
	movzwl	72(%rax), %eax
	cwtl
	.loc 1 183 4
	cmpl	%eax, %edx
	jl	.L59
	.loc 1 183 47 discriminator 1
	movl	$0, %eax
	jmp	.L60
.L59:
	.loc 1 184 13
	movq	-8(%rbp), %rax
	movq	80(%rax), %rsi
	.loc 1 184 28
	movq	-8(%rbp), %rax
	movzwl	66(%rax), %edx
	.loc 1 184 39
	leal	1(%rdx), %ecx
	movw	%cx, 66(%rax)
	.loc 1 184 42
	movzwl	%dx, %edx
	.loc 1 184 47
	movq	-8(%rbp), %rax
	movzwl	68(%rax), %eax
	.loc 1 184 42
	movzwl	%ax, %eax
	addq	%rax, %rdx
	movq	%rdx, %rax
	addq	%rax, %rax
	addq	%rdx, %rax
	salq	$5, %rax
	addq	%rsi, %rax
.L60:
	.loc 1 184 2
	leave
	.cfi_def_cfa 7, 8
	ret
	.cfi_endproc
.LFE14:
	.size	arr_iterNext_obj_smodule, .-arr_iterNext_obj_smodule
	.globl	arr_iterPrev_obj_smodule
	.type	arr_iterPrev_obj_smodule, @function
arr_iterPrev_obj_smodule:
.LFB15:
	.loc 1 186 57
	.cfi_startproc
	pushq	%rbp
	.cfi_def_cfa_offset 16
	.cfi_offset 6, -16
	movq	%rsp, %rbp
	.cfi_def_cfa_register 6
	subq	$16, %rsp
	movq	%rdi, -8(%rbp)
	.loc 1 187 5
	movq	-8(%rbp), %rax
	.loc 1 187 4
	testq	%rax, %rax
	jne	.L62
	.loc 1 187 13 discriminator 1
	movq	stderr(%rip), %rax
	leaq	-8(%rbp), %rdx
	movq	%rdx, %rcx
	leaq	__func__.4586(%rip), %rdx
	leaq	.LC0(%rip), %rsi
	movq	%rax, %rdi
	movl	$0, %eax
	call	fprintf@PLT
	.loc 1 187 56 discriminator 1
	movl	$1, %edi
	call	exit@PLT
.L62:
	.loc 1 188 6
	movq	-8(%rbp), %rax
	movzwl	66(%rax), %edx
	.loc 1 188 17
	subl	$1, %edx
	movw	%dx, 66(%rax)
	.loc 1 189 9
	movq	-8(%rbp), %rax
	movzwl	66(%rax), %eax
	movzwl	%ax, %edx
	.loc 1 189 26
	movq	-8(%rbp), %rax
	movzwl	72(%rax), %eax
	cwtl
	.loc 1 189 4
	cmpl	%eax, %edx
	jl	.L63
	.loc 1 189 47 discriminator 1
	movl	$0, %eax
	jmp	.L64
.L63:
	.loc 1 190 13
	movq	-8(%rbp), %rax
	movq	80(%rax), %rcx
	.loc 1 190 27
	movq	-8(%rbp), %rax
	movzwl	66(%rax), %eax
	.loc 1 190 38
	movzwl	%ax, %edx
	.loc 1 190 43
	movq	-8(%rbp), %rax
	movzwl	68(%rax), %eax
	.loc 1 190 38
	movzwl	%ax, %eax
	addq	%rax, %rdx
	movq	%rdx, %rax
	addq	%rax, %rax
	addq	%rdx, %rax
	salq	$5, %rax
	addq	%rcx, %rax
.L64:
	.loc 1 190 2
	leave
	.cfi_def_cfa 7, 8
	ret
	.cfi_endproc
.LFE15:
	.size	arr_iterPrev_obj_smodule, .-arr_iterPrev_obj_smodule
	.globl	arr__getRawPtr_obj_smodule
	.type	arr__getRawPtr_obj_smodule, @function
arr__getRawPtr_obj_smodule:
.LFB16:
	.loc 1 193 59
	.cfi_startproc
	pushq	%rbp
	.cfi_def_cfa_offset 16
	.cfi_offset 6, -16
	movq	%rsp, %rbp
	.cfi_def_cfa_register 6
	subq	$16, %rsp
	movq	%rdi, -8(%rbp)
	.loc 1 194 5
	movq	-8(%rbp), %rax
	.loc 1 194 4
	testq	%rax, %rax
	jne	.L66
	.loc 1 194 13 discriminator 1
	movq	stderr(%rip), %rax
	leaq	-8(%rbp), %rdx
	movq	%rdx, %rcx
	leaq	__func__.4590(%rip), %rdx
	leaq	.LC0(%rip), %rsi
	movq	%rax, %rdi
	movl	$0, %eax
	call	fprintf@PLT
	.loc 1 194 56 discriminator 1
	movl	$1, %edi
	call	exit@PLT
.L66:
	.loc 1 195 13
	movq	-8(%rbp), %rax
	movq	80(%rax), %rcx
	.loc 1 195 27
	movq	-8(%rbp), %rax
	movzwl	68(%rax), %eax
	movzwl	%ax, %edx
	.loc 1 195 22
	movq	%rdx, %rax
	addq	%rax, %rax
	addq	%rdx, %rax
	salq	$5, %rax
	addq	%rcx, %rax
	.loc 1 195 2
	leave
	.cfi_def_cfa 7, 8
	ret
	.cfi_endproc
.LFE16:
	.size	arr__getRawPtr_obj_smodule, .-arr__getRawPtr_obj_smodule
	.section	.rodata
.LC10:
	.string	"\n_typeSize %ld\n"
.LC11:
	.string	"allocationSize %d\n"
.LC12:
	.string	"iterIndex %d\n"
.LC13:
	.string	"capacity %d\n"
.LC14:
	.string	"usedCapacity %d\n"
.LC15:
	.string	"_resizeCounter %d\n"
	.text
	.globl	arr_dump_obj_smodule
	.type	arr_dump_obj_smodule, @function
arr_dump_obj_smodule:
.LFB17:
	.loc 1 199 58
	.cfi_startproc
	pushq	%rbp
	.cfi_def_cfa_offset 16
	.cfi_offset 6, -16
	movq	%rsp, %rbp
	.cfi_def_cfa_register 6
	subq	$32, %rsp
	movq	%rdi, -24(%rbp)
	.loc 1 200 2
	movq	-24(%rbp), %rax
	movq	56(%rax), %rdx
	movq	stderr(%rip), %rax
	leaq	.LC10(%rip), %rsi
	movq	%rax, %rdi
	movl	$0, %eax
	call	fprintf@PLT
	.loc 1 201 42
	movq	-24(%rbp), %rax
	movzwl	64(%rax), %eax
	.loc 1 201 2
	movzwl	%ax, %edx
	movq	stderr(%rip), %rax
	leaq	.LC11(%rip), %rsi
	movq	%rax, %rdi
	movl	$0, %eax
	call	fprintf@PLT
	.loc 1 202 37
	movq	-24(%rbp), %rax
	movzwl	66(%rax), %eax
	.loc 1 202 2
	movzwl	%ax, %edx
	movq	stderr(%rip), %rax
	leaq	.LC12(%rip), %rsi
	movq	%rax, %rdi
	movl	$0, %eax
	call	fprintf@PLT
	.loc 1 203 36
	movq	-24(%rbp), %rax
	movzwl	70(%rax), %eax
	.loc 1 203 2
	movzwl	%ax, %edx
	movq	stderr(%rip), %rax
	leaq	.LC13(%rip), %rsi
	movq	%rax, %rdi
	movl	$0, %eax
	call	fprintf@PLT
	.loc 1 204 40
	movq	-24(%rbp), %rax
	movzwl	72(%rax), %eax
	.loc 1 204 2
	movswl	%ax, %edx
	movq	stderr(%rip), %rax
	leaq	.LC14(%rip), %rsi
	movq	%rax, %rdi
	movl	$0, %eax
	call	fprintf@PLT
	.loc 1 205 42
	movq	-24(%rbp), %rax
	movzwl	74(%rax), %eax
	.loc 1 205 2
	movzwl	%ax, %edx
	movq	stderr(%rip), %rax
	leaq	.LC15(%rip), %rsi
	movq	%rax, %rdi
	movl	$0, %eax
	call	fprintf@PLT
.LBB3:
	.loc 1 207 10
	movl	$0, -4(%rbp)
	.loc 1 207 2
	jmp	.L69
.L70:
	.loc 1 208 3 discriminator 3
	movl	-4(%rbp), %eax
	movzwl	%ax, %edx
	movq	-24(%rbp), %rax
	movl	%edx, %esi
	movq	%rax, %rdi
	call	arr_indexToPtr_obj_smodule
	movq	%rax, %rdi
	call	obj_smodule_print@PLT
	.loc 1 207 32 discriminator 3
	addl	$1, -4(%rbp)
.L69:
	.loc 1 207 20 discriminator 1
	movq	-24(%rbp), %rax
	movzwl	70(%rax), %eax
	movzwl	%ax, %eax
	.loc 1 207 2 discriminator 1
	cmpl	%eax, -4(%rbp)
	jl	.L70
.LBE3:
	.loc 1 209 2
	nop
	leave
	.cfi_def_cfa 7, 8
	ret
	.cfi_endproc
.LFE17:
	.size	arr_dump_obj_smodule, .-arr_dump_obj_smodule
	.section	.rodata
	.align 16
	.type	__func__.4505, @object
	.size	__func__.4505, 25
__func__.4505:
	.string	"arr_Finalize_obj_smodule"
	.align 16
	.type	__func__.4513, @object
	.size	__func__.4513, 21
__func__.4513:
	.string	"arr_Copy_obj_smodule"
	.align 16
	.type	__func__.4520, @object
	.size	__func__.4520, 23
__func__.4520:
	.string	"arr_Copyto_obj_smodule"
	.align 16
	.type	__func__.4525, @object
	.size	__func__.4525, 21
__func__.4525:
	.string	"arr_Free_obj_smodule"
	.align 16
	.type	__func__.4529, @object
	.size	__func__.4529, 22
__func__.4529:
	.string	"arr_Clean_obj_smodule"
	.align 16
	.type	__func__.4541, @object
	.size	__func__.4541, 24
__func__.4541:
	.string	"arr__resize_obj_smodule"
	.align 16
	.type	__func__.4549, @object
	.size	__func__.4549, 25
__func__.4549:
	.string	"arr_extendBy_obj_smodule"
	.align 16
	.type	__func__.4554, @object
	.size	__func__.4554, 27
__func__.4554:
	.string	"arr_indexToPtr_obj_smodule"
	.align 16
	.type	__func__.4558, @object
	.size	__func__.4558, 23
__func__.4558:
	.string	"arr_append_obj_smodule"
	.align 16
	.type	__func__.4565, @object
	.size	__func__.4565, 26
__func__.4565:
	.string	"arr_execOnAll_obj_smodule"
	.align 16
	.type	__func__.4574, @object
	.size	__func__.4574, 31
__func__.4574:
	.string	"arr_iterResetStart_obj_smodule"
	.align 16
	.type	__func__.4578, @object
	.size	__func__.4578, 29
__func__.4578:
	.string	"arr_iterResetEnd_obj_smodule"
	.align 16
	.type	__func__.4582, @object
	.size	__func__.4582, 25
__func__.4582:
	.string	"arr_iterNext_obj_smodule"
	.align 16
	.type	__func__.4586, @object
	.size	__func__.4586, 25
__func__.4586:
	.string	"arr_iterPrev_obj_smodule"
	.align 16
	.type	__func__.4590, @object
	.size	__func__.4590, 27
__func__.4590:
	.string	"arr__getRawPtr_obj_smodule"
	.text
.Letext0:
	.file 2 "/usr/lib/gcc/x86_64-pc-linux-gnu/9.3.0/include/stddef.h"
	.file 3 "/usr/include/bits/types.h"
	.file 4 "/usr/include/bits/types/struct_FILE.h"
	.file 5 "/usr/include/bits/types/FILE.h"
	.file 6 "/usr/include/stdio.h"
	.file 7 "/usr/include/bits/stdint-intn.h"
	.file 8 "/usr/include/bits/stdint-uintn.h"
	.file 9 "/usr/include/time.h"
	.file 10 "/usr/include/unistd.h"
	.file 11 "submod/libctfb/conf.h"
	.file 12 "submod/libctfb/draw.h"
	.file 13 "submod/libctfb/input.h"
	.file 14 "parse.h"
	.file 15 "smodule.h"
	.file 16 "submod/cstl/tmpl/obj.h"
	.file 17 "submod/cstl/tmpl/arr.h"
	.section	.note.GNU-stack,"",@progbits
